target datalayout = "e-m:e-p270:32:32-p271:32:32-p272:64:64-i64:64-i128:128-f80:128-n8:16:32:64-S128"
target triple = "x86_64-pc-linux-gnu"

%struct.AVFilterPad = type { ptr, i32, i32, %union.anon, ptr, ptr, ptr }
%union.anon = type { ptr }
%struct.AVFilterContext = type { ptr, ptr, ptr, ptr, ptr, i32, ptr, ptr, i32, ptr, ptr, i32, i32, ptr, ptr, ptr, ptr, i32, ptr, i32, i32 }
%struct.AVFilter = type { ptr, ptr, ptr, ptr, ptr, i32 }
%struct.MixContext = type { ptr, ptr, ptr, i32, i32, i32, ptr, float, float, i32, i32, i32, i32, i32, i32, i32, i32, [4 x i32], [4 x i32], [4 x ptr], ptr, ptr, ptr, %struct.FFFrameSync }
%struct.FFFrameSync = type { ptr, ptr, i32, %struct.AVRational, i64, ptr, ptr, i32, i32, i8, i8, ptr, i32, i32, i32, i32 }
%struct.AVRational = type { i32, i32 }

@.str.2 = private unnamed_addr constant [5 x i8] c"tmix\00", align 1
@.str.25 = private unnamed_addr constant [8 x i8] c"input%d\00", align 1

; Function Attrs: cold nounwind optsize uwtable
define internal i32 @init(ptr noundef %0) #0 {
  %2 = alloca i32, align 4
  %3 = alloca ptr, align 8
  %4 = alloca ptr, align 8
  %5 = alloca i32, align 4
  %6 = alloca i32, align 4
  %7 = alloca i32, align 4
  %8 = alloca %struct.AVFilterPad, align 8
  store ptr %0, ptr %3, align 8, !tbaa !4
  call void @llvm.lifetime.start.p0(i64 8, ptr %4) #12
  %9 = load ptr, ptr %3, align 8, !tbaa !4
  %10 = getelementptr inbounds nuw %struct.AVFilterContext, ptr %9, i32 0, i32 9
  %11 = load ptr, ptr %10, align 8, !tbaa !9
  store ptr %11, ptr %4, align 8, !tbaa !22
  call void @llvm.lifetime.start.p0(i64 4, ptr %5) #12
  %12 = load ptr, ptr %3, align 8, !tbaa !4
  %13 = getelementptr inbounds nuw %struct.AVFilterContext, ptr %12, i32 0, i32 1
  %14 = load ptr, ptr %13, align 8, !tbaa !24
  %15 = getelementptr inbounds nuw %struct.AVFilter, ptr %14, i32 0, i32 0
  %16 = load ptr, ptr %15, align 8, !tbaa !25
  %17 = call i32 @strcmp(ptr noundef %16, ptr noundef @.str.2) #13
  %18 = icmp ne i32 %17, 0
  %19 = xor i1 %18, true
  %20 = zext i1 %19 to i32
  %21 = load ptr, ptr %4, align 8, !tbaa !22
  %22 = getelementptr inbounds nuw %struct.MixContext, ptr %21, i32 0, i32 10
  store i32 %20, ptr %22, align 4, !tbaa !27
  %23 = load ptr, ptr %4, align 8, !tbaa !22
  %24 = getelementptr inbounds nuw %struct.MixContext, ptr %23, i32 0, i32 3
  %25 = load i32, ptr %24, align 8, !tbaa !39
  %26 = sext i32 %25 to i64
  %27 = call noalias ptr @av_calloc(i64 noundef %26, i64 noundef 8)
  %28 = load ptr, ptr %4, align 8, !tbaa !22
  %29 = getelementptr inbounds nuw %struct.MixContext, ptr %28, i32 0, i32 22
  store ptr %27, ptr %29, align 8, !tbaa !40
  %30 = load ptr, ptr %4, align 8, !tbaa !22
  %31 = getelementptr inbounds nuw %struct.MixContext, ptr %30, i32 0, i32 22
  %32 = load ptr, ptr %31, align 8, !tbaa !40
  %33 = icmp ne ptr %32, null
  br i1 %33, label %35, label %34

34:                                               ; preds = %1
  store i32 -12, ptr %2, align 4
  store i32 1, ptr %6, align 4
  br label %89

35:                                               ; preds = %1
  %36 = load ptr, ptr %4, align 8, !tbaa !22
  %37 = getelementptr inbounds nuw %struct.MixContext, ptr %36, i32 0, i32 3
  %38 = load i32, ptr %37, align 8, !tbaa !39
  %39 = sext i32 %38 to i64
  %40 = call noalias ptr @av_calloc(i64 noundef %39, i64 noundef 4)
  %41 = load ptr, ptr %4, align 8, !tbaa !22
  %42 = getelementptr inbounds nuw %struct.MixContext, ptr %41, i32 0, i32 6
  store ptr %40, ptr %42, align 8, !tbaa !41
  %43 = load ptr, ptr %4, align 8, !tbaa !22
  %44 = getelementptr inbounds nuw %struct.MixContext, ptr %43, i32 0, i32 6
  %45 = load ptr, ptr %44, align 8, !tbaa !41
  %46 = icmp ne ptr %45, null
  br i1 %46, label %48, label %47

47:                                               ; preds = %35
  store i32 -12, ptr %2, align 4
  store i32 1, ptr %6, align 4
  br label %89

48:                                               ; preds = %35
  %49 = load ptr, ptr %4, align 8, !tbaa !22
  %50 = getelementptr inbounds nuw %struct.MixContext, ptr %49, i32 0, i32 10
  %51 = load i32, ptr %50, align 4, !tbaa !27
  %52 = icmp ne i32 %51, 0
  br i1 %52, label %86, label %53

53:                                               ; preds = %48
  call void @llvm.lifetime.start.p0(i64 4, ptr %7) #12
  store i32 0, ptr %7, align 4, !tbaa !42
  br label %54

54:                                               ; preds = %80, %53
  %55 = load i32, ptr %7, align 4, !tbaa !42
  %56 = load ptr, ptr %4, align 8, !tbaa !22
  %57 = getelementptr inbounds nuw %struct.MixContext, ptr %56, i32 0, i32 3
  %58 = load i32, ptr %57, align 8, !tbaa !39
  %59 = icmp slt i32 %55, %58
  br i1 %59, label %61, label %60

60:                                               ; preds = %54
  store i32 2, ptr %6, align 4
  br label %83

61:                                               ; preds = %54
  call void @llvm.lifetime.start.p0(i64 48, ptr %8) #12
  call void @llvm.memset.p0.i64(ptr align 8 %8, i8 0, i64 48, i1 false)
  %62 = getelementptr inbounds nuw %struct.AVFilterPad, ptr %8, i32 0, i32 1
  store i32 0, ptr %62, align 8, !tbaa !43
  %63 = load i32, ptr %7, align 4, !tbaa !42
  %64 = call ptr (ptr, ...) @av_asprintf(ptr noundef @.str.25, i32 noundef %63)
  %65 = getelementptr inbounds nuw %struct.AVFilterPad, ptr %8, i32 0, i32 0
  store ptr %64, ptr %65, align 8, !tbaa !45
  %66 = getelementptr inbounds nuw %struct.AVFilterPad, ptr %8, i32 0, i32 0
  %67 = load ptr, ptr %66, align 8, !tbaa !45
  %68 = icmp ne ptr %67, null
  br i1 %68, label %70, label %69

69:                                               ; preds = %61
  store i32 -12, ptr %2, align 4
  store i32 1, ptr %6, align 4
  br label %77

70:                                               ; preds = %61
  %71 = load ptr, ptr %3, align 8, !tbaa !4
  %72 = call i32 @ff_append_inpad_free_name(ptr noundef %71, ptr noundef %8)
  store i32 %72, ptr %5, align 4, !tbaa !42
  %73 = icmp slt i32 %72, 0
  br i1 %73, label %74, label %76

74:                                               ; preds = %70
  %75 = load i32, ptr %5, align 4, !tbaa !42
  store i32 %75, ptr %2, align 4
  store i32 1, ptr %6, align 4
  br label %77

76:                                               ; preds = %70
  store i32 0, ptr %6, align 4
  br label %77

77:                                               ; preds = %76, %74, %69
  call void @llvm.lifetime.end.p0(i64 48, ptr %8) #12
  %78 = load i32, ptr %6, align 4
  switch i32 %78, label %83 [
    i32 0, label %79
  ]

79:                                               ; preds = %77
  br label %80

80:                                               ; preds = %79
  %81 = load i32, ptr %7, align 4, !tbaa !42
  %82 = add nsw i32 %81, 1
  store i32 %82, ptr %7, align 4, !tbaa !42
  br label %54, !llvm.loop !46

83:                                               ; preds = %77, %60
  call void @llvm.lifetime.end.p0(i64 4, ptr %7) #12
  %84 = load i32, ptr %6, align 4
  switch i32 %84, label %89 [
    i32 2, label %85
  ]

85:                                               ; preds = %83
  br label %86

86:                                               ; preds = %85, %48
  %87 = load ptr, ptr %3, align 8, !tbaa !4
  %88 = call i32 @parse_weights(ptr noundef %87)
  store i32 %88, ptr %2, align 4
  store i32 1, ptr %6, align 4
  br label %89

89:                                               ; preds = %86, %83, %47, %34
  call void @llvm.lifetime.end.p0(i64 4, ptr %5) #12
  call void @llvm.lifetime.end.p0(i64 8, ptr %4) #12
  %90 = load i32, ptr %2, align 4
  ret i32 %90
}