; Function Attrs: cold nounwind optsize uwtable
define internal range(i32 -2147483648, 1) i32 @init(ptr noundef %0) #0 {
  %2 = alloca %struct.AVFilterPad, align 8
  %3 = getelementptr inbounds nuw i8, ptr %0, i64 72
  %4 = load ptr, ptr %3, align 8, !tbaa !4
  %5 = getelementptr inbounds nuw i8, ptr %0, i64 8
  %6 = load ptr, ptr %5, align 8, !tbaa !20
  %7 = load ptr, ptr %6, align 8, !tbaa !21
  %8 = tail call i32 @strcmp(ptr noundef nonnull dereferenceable(1) %7, ptr noundef nonnull dereferenceable(5) @.str.2) #11
  %.not = icmp eq i32 %8, 0
  %9 = zext i1 %.not to i32
  %10 = getelementptr inbounds nuw i8, ptr %4, i64 60
  store i32 %9, ptr %10, align 4, !tbaa !23
  %11 = getelementptr inbounds nuw i8, ptr %4, i64 24
  %12 = load i32, ptr %11, align 8, !tbaa !36
  %13 = sext i32 %12 to i64
  %14 = tail call noalias ptr @av_calloc(i64 noundef %13, i64 noundef 8) #12
  %15 = getelementptr inbounds nuw i8, ptr %4, i64 168
  store ptr %14, ptr %15, align 8, !tbaa !37
  %.not24 = icmp eq ptr %14, null
  br i1 %.not24, label %.thread31, label %16

16:                                               ; preds = %1
  %17 = load i32, ptr %11, align 8, !tbaa !36
  %18 = sext i32 %17 to i64
  %19 = tail call noalias ptr @av_calloc(i64 noundef %18, i64 noundef 4) #12
  %20 = getelementptr inbounds nuw i8, ptr %4, i64 40
  store ptr %19, ptr %20, align 8, !tbaa !38
  %.not25 = icmp eq ptr %19, null
  br i1 %.not25, label %.thread31, label %21

21:                                               ; preds = %16
  %22 = load i32, ptr %10, align 4, !tbaa !23
  %.not26 = icmp eq i32 %22, 0
  br i1 %.not26, label %.preheader, label %.loopexit

.preheader:                                       ; preds = %21
  %23 = load i32, ptr %11, align 8, !tbaa !36
  %.not2833 = icmp sgt i32 %23, 0
  br i1 %.not2833, label %.lr.ph, label %.loopexit

24:                                               ; preds = %28
  %25 = add nuw nsw i32 %.035, 1
  %26 = load i32, ptr %11, align 8, !tbaa !36
  %.not28 = icmp slt i32 %25, %26
  br i1 %.not28, label %.lr.ph, label %.loopexit, !llvm.loop !39

.lr.ph:                                           ; preds = %.preheader, %24
  %.035 = phi i32 [ %25, %24 ], [ 0, %.preheader ]
  call void @llvm.lifetime.start.p0(i64 48, ptr nonnull %2) #12
  call void @llvm.memset.p0.i64(ptr noundef nonnull align 8 dereferenceable(48) %2, i8 0, i64 48, i1 false)
  %27 = call ptr (ptr, ...) @av_asprintf(ptr noundef nonnull @.str.25, i32 noundef %.035) #12
  store ptr %27, ptr %2, align 8, !tbaa !41
  %.not27 = icmp eq ptr %27, null
  br i1 %.not27, label %.thread, label %28

.thread:                                          ; preds = %.lr.ph
  call void @llvm.lifetime.end.p0(i64 48, ptr nonnull %2) #12
  br label %.thread31

28:                                               ; preds = %.lr.ph
  %29 = call i32 @ff_append_inpad_free_name(ptr noundef %0, ptr noundef nonnull %2) #12
  %30 = icmp sgt i32 %29, -1
  call void @llvm.lifetime.end.p0(i64 48, ptr nonnull %2) #12
  br i1 %30, label %24, label %.thread31

.loopexit:                                        ; preds = %24, %.preheader, %21
  %31 = call fastcc i32 @parse_weights(ptr noundef %0)
  br label %.thread31

.thread31:                                        ; preds = %28, %.thread, %16, %1, %.loopexit
  %.021 = phi i32 [ %31, %.loopexit ], [ -12, %1 ], [ -12, %16 ], [ -12, %.thread ], [ %29, %28 ]
  ret i32 %.021
}